; ModuleID = '1/1504.c'
source_filename = "1/1504.c"
target datalayout = "e-m:e-p270:32:32-p271:32:32-p272:64:64-i64:64-f80:128-n8:16:32:64-S128"
target triple = "x86_64-pc-linux-gnu"

@.str = private unnamed_addr constant [4 x i8] c"%d\0A\00", align 1
@.str.1 = private unnamed_addr constant [3 x i8] c"%d\00", align 1

; Function Attrs: noinline nounwind uwtable
define dso_local i32 @fenjie(i32 %0, i32 %1) #0 {
  %3 = alloca i32, align 4
  %4 = alloca i32, align 4
  %5 = alloca i32, align 4
  %6 = alloca i32, align 4
  %7 = alloca i32, align 4
  store i32 %0, i32* %3, align 4
  store i32 %1, i32* %4, align 4
  store i32 0, i32* %6, align 4
  %8 = load i32, i32* %4, align 4
  store i32 %8, i32* %5, align 4
  br label %9

9:                                                ; preds = %36, %2
  %10 = load i32, i32* %5, align 4
  %11 = load i32, i32* %3, align 4
  %12 = icmp sle i32 %10, %11
  br i1 %12, label %13, label %39

13:                                               ; preds = %9
  %14 = load i32, i32* %3, align 4
  %15 = load i32, i32* %5, align 4
  %16 = icmp eq i32 %14, %15
  br i1 %16, label %17, label %20

17:                                               ; preds = %13
  %18 = load i32, i32* %6, align 4
  %19 = add nsw i32 %18, 1
  store i32 %19, i32* %6, align 4
  br label %35

20:                                               ; preds = %13
  %21 = load i32, i32* %3, align 4
  %22 = load i32, i32* %5, align 4
  %23 = srem i32 %21, %22
  %24 = icmp eq i32 %23, 0
  br i1 %24, label %25, label %34

25:                                               ; preds = %20
  %26 = load i32, i32* %3, align 4
  %27 = load i32, i32* %5, align 4
  %28 = sdiv i32 %26, %27
  store i32 %28, i32* %7, align 4
  %29 = load i32, i32* %6, align 4
  %30 = load i32, i32* %7, align 4
  %31 = load i32, i32* %5, align 4
  %32 = call i32 @fenjie(i32 %30, i32 %31)
  %33 = add nsw i32 %29, %32
  store i32 %33, i32* %6, align 4
  br label %34

34:                                               ; preds = %25, %20
  br label %35

35:                                               ; preds = %34, %17
  br label %36

36:                                               ; preds = %35
  %37 = load i32, i32* %5, align 4
  %38 = add nsw i32 %37, 1
  store i32 %38, i32* %5, align 4
  br label %9

39:                                               ; preds = %9
  %40 = load i32, i32* %6, align 4
  ret i32 %40
}

; Function Attrs: noinline nounwind uwtable
define dso_local void @main() #0 {
  %1 = alloca i32, align 4
  %2 = alloca i32, align 4
  %3 = alloca i32, align 4
  %4 = alloca i32, align 4
  %5 = call i32 (i8*, ...) @__isoc99_scanf(i8* getelementptr inbounds ([4 x i8], [4 x i8]* @.str, i64 0, i64 0), i32* %1)
  store i32 0, i32* %2, align 4
  br label %6

6:                                                ; preds = %16, %0
  %7 = load i32, i32* %2, align 4
  %8 = load i32, i32* %1, align 4
  %9 = icmp slt i32 %7, %8
  br i1 %9, label %10, label %19

10:                                               ; preds = %6
  %11 = call i32 (i8*, ...) @__isoc99_scanf(i8* getelementptr inbounds ([3 x i8], [3 x i8]* @.str.1, i64 0, i64 0), i32* %4)
  %12 = load i32, i32* %4, align 4
  %13 = call i32 @fenjie(i32 %12, i32 2)
  store i32 %13, i32* %3, align 4
  %14 = load i32, i32* %3, align 4
  %15 = call i32 (i8*, ...) @printf(i8* getelementptr inbounds ([4 x i8], [4 x i8]* @.str, i64 0, i64 0), i32 %14)
  br label %16

16:                                               ; preds = %10
  %17 = load i32, i32* %2, align 4
  %18 = add nsw i32 %17, 1
  store i32 %18, i32* %2, align 4
  br label %6

19:                                               ; preds = %6
  ret void
}

declare dso_local i32 @__isoc99_scanf(i8*, ...) #1

declare dso_local i32 @printf(i8*, ...) #1


!llvm.module.flags = !{!0}
!llvm.ident = !{!1}

!0 = !{i32 1, !"wchar_size", i32 4}
!1 = !{!"clang version 10.0.0-4ubuntu1 "}
